; Function Attrs: nounwind uwtable
define hidden noalias ptr @tcp_follow_address_filter(ptr noundef %0, ptr noundef %1, i32 noundef %2, i32 noundef %3) #0 {
  %5 = alloca [46 x i8], align 16
  %6 = alloca [46 x i8], align 16
  %7 = load i32, ptr %0, align 8
  %8 = icmp eq i32 %7, 3
  %9 = select i1 %8, ptr @.str.1, ptr @.str.2
  call void @address_to_str_buf(ptr noundef nonnull %0, ptr noundef nonnull %5, i32 noundef 46) #20
  call void @address_to_str_buf(ptr noundef %1, ptr noundef nonnull %6, i32 noundef 46) #20
  %10 = call noalias ptr (ptr, ptr, ...) @wmem_strdup_printf(ptr noundef null, ptr noundef nonnull @.str.3, ptr noundef nonnull %9, ptr noundef nonnull %5, i32 noundef %2, ptr noundef nonnull %9, ptr noundef nonnull %6, i32 noundef %3, ptr noundef nonnull %9, ptr noundef nonnull %6, i32 noundef %3, ptr noundef nonnull %9, ptr noundef nonnull %5, i32 noundef %2) #20
  ret ptr %10
}